Certificate:
    Data:
        Version: 3 (0x2)
        Serial Number:
            22:99:bf:9e:7d:1b:05:30:9c:27:8b:3f:6e:47:b1:7a
        Signature Algorithm: sha256WithRSAEncryption
        Issuer: CN=172.19.0.3
        Validity
            Not Before: Mar 26 05:24:43 2023 GMT
            Not After : Jun 28 05:24:43 2025 GMT
        Subject: CN=server
        Subject Public Key Info:
            Public Key Algorithm: rsaEncryption
                Public-Key: (2048 bit)
                Modulus:
                    00:89:60:e6:67:73:15:92:ea:a1:96:24:c6:e4:7b:
                    b2:d7:cd:06:e5:d9:3f:de:cd:2a:bd:2f:0e:3c:85:
                    56:01:61:16:88:c1:35:df:8f:a5:dd:a1:a1:d3:a4:
                    c5:db:5f:88:aa:86:9f:49:c6:dc:6e:3e:55:6b:0a:
                    8e:c5:90:26:47:06:bb:6b:51:2d:be:37:9b:fb:18:
                    5a:ff:3a:f0:77:ab:68:13:d5:a5:cf:24:10:84:7f:
                    0c:c5:3e:5c:d6:52:98:ae:09:7d:ec:92:8e:e3:8b:
                    65:2a:20:52:62:ae:f8:b3:28:e2:7a:4f:f7:c2:ab:
                    cc:61:e5:3d:d0:4f:27:a7:d6:56:18:b5:1d:45:05:
                    fa:bd:44:a8:09:66:66:2c:9c:d2:48:7e:1a:07:8f:
                    4b:ec:f9:fd:30:bf:98:6d:11:78:41:18:8c:00:6b:
                    33:ba:90:9f:71:be:fd:f7:e1:d9:88:56:9e:d5:4a:
                    46:6e:ae:bb:90:75:a6:1d:3e:ed:09:47:58:32:68:
                    22:fb:82:7a:3c:d6:41:f2:02:95:15:7b:4b:98:7e:
                    99:eb:3a:a5:26:7b:ce:44:e5:a2:5b:33:c6:5d:de:
                    60:98:43:23:96:f1:83:35:51:a5:40:ce:41:a4:1d:
                    13:78:c8:5c:96:8e:81:15:eb:f7:ed:a3:e5:8e:f5:
                    58:cb
                Exponent: 65537 (0x10001)
        X509v3 extensions:
            X509v3 Basic Constraints: 
                CA:FALSE
            X509v3 Subject Key Identifier: 
                FA:5D:91:76:F5:89:B2:10:98:AE:6F:79:A7:D9:79:35:43:0D:54:0F
            X509v3 Authority Key Identifier: 
                keyid:6B:B7:77:6C:7D:71:A7:B5:6B:43:D3:45:D5:B3:A1:93:44:77:12:60
                DirName:/CN=172.19.0.3
                serial:5B:E0:21:F4:03:1C:6E:59:95:6D:71:E1:6A:6B:91:2C:C9:38:27:9D
            X509v3 Extended Key Usage: 
                TLS Web Server Authentication
            X509v3 Key Usage: 
                Digital Signature, Key Encipherment
            X509v3 Subject Alternative Name: 
                DNS:server
    Signature Algorithm: sha256WithRSAEncryption
    Signature Value:
        27:aa:db:54:e6:af:ea:0a:82:df:54:6c:1f:ce:5f:01:c9:b3:
        15:1f:07:71:b9:88:51:5b:f2:ec:29:b2:6b:2b:d0:1a:a7:2d:
        c6:b6:43:0e:4f:46:c4:c8:bc:1a:4a:22:67:75:69:a2:7b:f4:
        ae:15:7d:49:8a:7a:1a:d2:5f:32:15:6d:63:7c:a9:ab:8e:51:
        1c:45:8f:99:40:5b:f3:c1:5b:8d:8e:ac:14:29:58:81:e7:aa:
        f1:40:e5:2c:7b:63:95:80:fd:44:76:11:b2:cc:b1:e7:23:e3:
        7f:56:0d:a2:2f:4f:0e:fc:0f:aa:c0:54:e0:7c:8d:64:7e:12:
        24:ac:1f:46:21:32:1d:f1:a5:88:fb:a9:02:c7:75:f2:0a:94:
        e7:e5:bc:e9:2d:f8:66:04:b4:ef:06:02:c2:11:b3:60:76:68:
        98:d0:16:55:1d:67:66:44:76:2b:1f:78:05:3d:ae:62:bc:02:
        bb:c1:99:97:da:41:1a:59:87:61:5d:13:0d:67:20:c2:b6:63:
        6a:0a:b4:43:19:15:bc:fb:c2:1b:f9:36:e0:30:cc:9e:f9:5c:
        03:e4:b7:94:42:c4:f2:02:e0:62:66:3c:b4:f1:f6:2a:66:c3:
        45:1d:88:e9:34:39:56:ec:c4:24:d3:bb:4c:9e:bc:7e:a5:0a:
        61:2b:3a:0d
-----BEGIN CERTIFICATE-----
MIIDZTCCAk2gAwIBAgIQIpm/nn0bBTCcJ4s/bkexejANBgkqhkiG9w0BAQsFADAV
MRMwEQYDVQQDDAoxNzIuMTkuMC4zMB4XDTIzMDMyNjA1MjQ0M1oXDTI1MDYyODA1
MjQ0M1owETEPMA0GA1UEAwwGc2VydmVyMIIBIjANBgkqhkiG9w0BAQEFAAOCAQ8A
MIIBCgKCAQEAiWDmZ3MVkuqhliTG5Huy180G5dk/3s0qvS8OPIVWAWEWiME134+l
3aGh06TF21+IqoafScbcbj5VawqOxZAmRwa7a1Etvjeb+xha/zrwd6toE9WlzyQQ
hH8MxT5c1lKYrgl97JKO44tlKiBSYq74syjiek/3wqvMYeU90E8np9ZWGLUdRQX6
vUSoCWZmLJzSSH4aB49L7Pn9ML+YbRF4QRiMAGszupCfcb799+HZiFae1UpGbq67
kHWmHT7tCUdYMmgi+4J6PNZB8gKVFXtLmH6Z6zqlJnvOROWiWzPGXd5gmEMjlvGD
NVGlQM5BpB0TeMhclo6BFev37aPljvVYywIDAQABo4G0MIGxMAkGA1UdEwQCMAAw
HQYDVR0OBBYEFPpdkXb1ibIQmK5veafZeTVDDVQPMFAGA1UdIwRJMEeAFGu3d2x9
cae1a0PTRdWzoZNEdxJgoRmkFzAVMRMwEQYDVQQDDAoxNzIuMTkuMC4zghRb4CH0
AxxuWZVtceFqa5EsyTgnnTATBgNVHSUEDDAKBggrBgEFBQcDATALBgNVHQ8EBAMC
BaAwEQYDVR0RBAowCIIGc2VydmVyMA0GCSqGSIb3DQEBCwUAA4IBAQAnqttU5q/q
CoLfVGwfzl8BybMVHwdxuYhRW/LsKbJrK9Aapy3GtkMOT0bEyLwaSiJndWmie/Su
FX1Jinoa0l8yFW1jfKmrjlEcRY+ZQFvzwVuNjqwUKViB56rxQOUse2OVgP1EdhGy
zLHnI+N/Vg2iL08O/A+qwFTgfI1kfhIkrB9GITId8aWI+6kCx3XyCpTn5bzpLfhm
BLTvBgLCEbNgdmiY0BZVHWdmRHYrH3gFPa5ivAK7wZmX2kEaWYdhXRMNZyDCtmNq
CrRDGRW8+8Ib+TbgMMye+VwD5LeUQsTyAuBiZjy08fYqZsNFHYjpNDlW7MQk07tM
nrx+pQphKzoN
-----END CERTIFICATE-----
