Certificate:
    Data:
        Version: 3 (0x2)
        Serial Number:
            30:5d:bb:03:b5:be:dc:67:f0:b2:11:3c:e0:3a:f9:d4
        Signature Algorithm: sha256WithRSAEncryption
        Issuer: CN=server
        Validity
            Not Before: Mar 26 15:48:21 2023 GMT
            Not After : Jun 28 15:48:21 2025 GMT
        Subject: CN=server
        Subject Public Key Info:
            Public Key Algorithm: rsaEncryption
                Public-Key: (2048 bit)
                Modulus:
                    00:a3:c7:1b:52:16:94:1d:e4:f5:6b:4a:1a:8f:d7:
                    16:54:59:42:92:db:3f:52:ef:53:01:a2:5b:ba:64:
                    55:aa:4e:c0:24:a5:ed:e7:f0:08:2e:26:f9:5f:11:
                    09:77:c5:ec:22:2d:a5:0c:a9:80:55:02:2b:71:e8:
                    d2:28:5e:39:03:4d:97:bb:02:02:4c:c7:25:b3:01:
                    0e:ce:80:8f:c0:81:2f:63:83:2e:6b:48:fc:3e:33:
                    a3:46:87:96:b4:16:b0:20:ad:01:38:e7:b6:e3:dc:
                    06:4f:4d:bc:bc:1c:6c:48:e6:92:29:71:62:68:d4:
                    fb:d6:ea:6c:04:ce:19:d9:8c:73:49:7c:02:c0:f8:
                    3f:be:e1:e1:7b:b9:6f:a4:37:9f:07:8e:d9:4a:39:
                    24:d1:b1:3d:6e:da:54:55:2e:ee:fe:a4:f4:ff:c5:
                    65:e5:6e:8c:31:38:e3:bf:c7:ff:b8:b0:d1:a5:24:
                    5a:fc:44:43:63:2a:7b:4d:bf:1c:d4:19:39:13:15:
                    44:61:3d:e8:ff:29:85:c4:5a:4d:19:7b:b1:e8:6e:
                    ed:bd:5a:79:a7:da:f1:3f:78:12:48:c1:d9:d7:53:
                    2b:99:24:66:91:3f:cf:19:f8:0b:86:61:e2:57:3a:
                    ef:b8:a3:c0:ce:e7:14:2b:38:59:5a:bb:31:a7:1a:
                    4d:d3
                Exponent: 65537 (0x10001)
        X509v3 extensions:
            X509v3 Basic Constraints: 
                CA:FALSE
            X509v3 Subject Key Identifier: 
                CA:98:E3:D6:DA:93:AB:7E:27:1D:B0:DE:12:2B:48:3C:1D:BC:5D:22
            X509v3 Authority Key Identifier: 
                keyid:27:23:78:B1:0B:BD:0C:F3:66:48:1E:53:B3:76:E3:57:82:06:9F:E6
                DirName:/CN=server
                serial:5C:E6:E1:11:67:AA:5E:89:AB:45:E7:84:EB:90:E5:6C:A3:D7:50:7C
            X509v3 Extended Key Usage: 
                TLS Web Server Authentication
            X509v3 Key Usage: 
                Digital Signature, Key Encipherment
            X509v3 Subject Alternative Name: 
                DNS:server
    Signature Algorithm: sha256WithRSAEncryption
    Signature Value:
        62:dd:e3:d0:c6:2f:6b:dd:1e:f2:4e:e3:bf:51:05:88:b8:c2:
        b9:ab:14:8b:cb:bd:ca:5f:0d:05:fe:7a:5d:4f:ec:d3:b7:2e:
        b1:4d:0e:c7:06:3c:04:f8:b7:d0:5c:78:db:c0:e5:67:d5:a3:
        95:e1:a2:32:c7:2a:9b:3f:32:a7:79:c6:b1:07:f2:e8:f4:de:
        bf:09:14:03:7c:a4:c5:d9:63:a7:8b:16:8f:ca:cb:05:52:1a:
        d9:30:fb:8b:ae:80:1c:42:8e:58:32:2c:e4:34:7b:d3:1e:38:
        4c:d4:db:b4:1a:1b:99:52:a4:24:f2:cd:18:04:29:2c:77:d0:
        e1:c8:a8:ec:6f:8e:a0:29:8f:49:50:65:e0:8c:4d:04:ad:f3:
        98:c6:b1:c3:ef:2d:b8:00:2d:92:25:8e:71:b1:64:3a:8c:f4:
        6e:09:1e:74:e1:d7:3d:9e:0f:f5:79:8d:1e:06:c3:76:5c:21:
        43:7e:23:14:5e:6d:f4:47:43:f6:17:52:90:8e:19:a8:7c:94:
        24:0b:6e:55:4b:ed:b1:72:0b:7b:95:bb:ce:e4:9b:e0:9e:0c:
        4c:0a:c9:e2:be:c0:f1:4f:03:ee:b7:29:6c:3e:6c:f7:b3:eb:
        d2:13:f5:f6:57:62:f8:b1:83:d9:2f:1a:5d:a2:06:de:01:8d:
        0d:4f:cc:b5
-----BEGIN CERTIFICATE-----
MIIDXTCCAkWgAwIBAgIQMF27A7W+3GfwshE84Dr51DANBgkqhkiG9w0BAQsFADAR
MQ8wDQYDVQQDDAZzZXJ2ZXIwHhcNMjMwMzI2MTU0ODIxWhcNMjUwNjI4MTU0ODIx
WjARMQ8wDQYDVQQDDAZzZXJ2ZXIwggEiMA0GCSqGSIb3DQEBAQUAA4IBDwAwggEK
AoIBAQCjxxtSFpQd5PVrShqP1xZUWUKS2z9S71MBolu6ZFWqTsAkpe3n8AguJvlf
EQl3xewiLaUMqYBVAitx6NIoXjkDTZe7AgJMxyWzAQ7OgI/AgS9jgy5rSPw+M6NG
h5a0FrAgrQE457bj3AZPTby8HGxI5pIpcWJo1PvW6mwEzhnZjHNJfALA+D++4eF7
uW+kN58HjtlKOSTRsT1u2lRVLu7+pPT/xWXlbowxOOO/x/+4sNGlJFr8RENjKntN
vxzUGTkTFURhPej/KYXEWk0Ze7Hobu29Wnmn2vE/eBJIwdnXUyuZJGaRP88Z+AuG
YeJXOu+4o8DO5xQrOFlauzGnGk3TAgMBAAGjgbAwga0wCQYDVR0TBAIwADAdBgNV
HQ4EFgQUypjj1tqTq34nHbDeEitIPB28XSIwTAYDVR0jBEUwQ4AUJyN4sQu9DPNm
SB5Ts3bjV4IGn+ahFaQTMBExDzANBgNVBAMMBnNlcnZlcoIUXObhEWeqXomrReeE
65DlbKPXUHwwEwYDVR0lBAwwCgYIKwYBBQUHAwEwCwYDVR0PBAQDAgWgMBEGA1Ud
EQQKMAiCBnNlcnZlcjANBgkqhkiG9w0BAQsFAAOCAQEAYt3j0MYva90e8k7jv1EF
iLjCuasUi8u9yl8NBf56XU/s07cusU0OxwY8BPi30Fx428DlZ9WjleGiMscqmz8y
p3nGsQfy6PTevwkUA3ykxdljp4sWj8rLBVIa2TD7i66AHEKOWDIs5DR70x44TNTb
tBobmVKkJPLNGAQpLHfQ4cio7G+OoCmPSVBl4IxNBK3zmMaxw+8tuAAtkiWOcbFk
Ooz0bgkedOHXPZ4P9XmNHgbDdlwhQ34jFF5t9EdD9hdSkI4ZqHyUJAtuVUvtsXIL
e5W7zuSb4J4MTArJ4r7A8U8D7rcpbD5s97Pr0hP19ldi+LGD2S8aXaIG3gGNDU/M
tQ==
-----END CERTIFICATE-----
