Certificate:
    Data:
        Version: 3 (0x2)
        Serial Number:
            53:0e:85:b7:78:3d:bd:cd:cd:48:2d:75:b4:87:ac:ea
        Signature Algorithm: sha256WithRSAEncryption
        Issuer: CN=sensitive-web-server.example.test
        Validity
            Not Before: Mar 26 16:16:08 2023 GMT
            Not After : Jun 28 16:16:08 2025 GMT
        Subject: CN=sensitive-web-server.example.test
        Subject Public Key Info:
            Public Key Algorithm: rsaEncryption
                Public-Key: (2048 bit)
                Modulus:
                    00:a1:70:63:47:2e:e5:73:a3:a1:d9:bb:fd:8e:73:
                    0d:db:f8:5a:75:b5:98:8b:02:92:9e:e1:3d:d9:05:
                    45:e2:db:4c:cb:b2:84:6c:79:65:72:b2:00:7a:14:
                    d4:f1:4a:f7:94:db:24:71:53:a8:81:c9:29:59:e3:
                    8d:02:2e:93:7e:55:c6:2f:35:a5:9e:3e:de:28:06:
                    65:1a:94:94:21:f6:40:3a:c0:8d:57:6a:a6:fa:6b:
                    ce:bd:67:7c:9d:62:01:75:12:9d:8b:30:49:c2:83:
                    72:1a:ae:f9:01:e9:9f:07:20:f7:05:30:e0:ed:20:
                    b2:26:2a:1a:2a:2f:a8:14:6e:1c:08:46:f2:35:27:
                    4b:14:9c:59:5d:bf:ce:29:e9:55:fa:0c:6f:33:3a:
                    ae:3d:c6:01:5e:84:cc:f2:f6:45:ec:43:af:dd:38:
                    99:10:e5:1b:3f:8f:51:b0:cb:01:61:fe:38:9e:31:
                    52:97:ba:57:ff:f9:b4:a1:e3:66:5e:4e:7e:d7:9b:
                    d8:1f:94:cc:62:3f:75:bd:12:7b:a3:48:68:58:07:
                    70:2d:c2:b5:92:e0:aa:d6:95:33:d5:e1:21:50:47:
                    86:4e:d1:ed:3c:e9:3b:dc:7c:b4:9d:f4:d9:69:12:
                    33:f3:cf:84:25:9e:4c:21:fc:e8:52:6f:4b:30:78:
                    8c:5d
                Exponent: 65537 (0x10001)
        X509v3 extensions:
            X509v3 Basic Constraints: 
                CA:FALSE
            X509v3 Subject Key Identifier: 
                7B:40:9F:3F:96:E0:97:A0:9A:A0:10:DE:3C:FF:93:D5:0C:E0:3E:ED
            X509v3 Authority Key Identifier: 
                keyid:EE:EE:94:F7:46:81:3F:37:EC:9F:3A:84:35:81:3B:EE:4E:7A:68:98
                DirName:/CN=sensitive-web-server.example.test
                serial:04:FE:EB:D9:D5:51:5B:42:03:CD:A7:3A:A9:6B:1B:D3:B4:25:87:31
            X509v3 Extended Key Usage: 
                TLS Web Server Authentication
            X509v3 Key Usage: 
                Digital Signature, Key Encipherment
            X509v3 Subject Alternative Name: 
                DNS:sensitive-web-server.example.test
    Signature Algorithm: sha256WithRSAEncryption
    Signature Value:
        45:02:fa:84:ad:21:1a:2c:ea:f2:20:13:61:84:37:42:81:69:
        b5:f9:9c:18:ff:83:0a:18:3c:e8:65:8c:c1:3f:70:bc:db:ba:
        5a:d2:fe:de:78:17:02:a8:39:13:87:ae:7e:ce:0c:d9:3c:4b:
        9f:d0:ad:3d:25:64:94:04:7e:93:b4:4a:05:60:f7:13:f8:e1:
        ca:fc:91:a3:82:8c:ce:be:3b:96:26:a2:a4:13:f0:98:91:bf:
        a1:a1:30:73:8e:0e:77:05:6f:24:60:43:1f:19:b9:c7:15:f5:
        fd:a5:5a:cf:50:95:55:fb:b0:84:87:91:54:7b:d0:85:5a:68:
        a1:00:c3:62:a4:ca:b5:58:14:f0:91:4a:f2:e6:99:28:ba:11:
        60:96:67:e4:2a:86:2c:08:9e:91:39:88:ae:2e:71:29:54:7c:
        77:75:1b:5f:f0:cc:99:68:ea:6b:d8:b2:b4:08:55:eb:3a:9d:
        be:ff:86:b1:7e:53:00:84:45:1f:83:ec:a0:5d:70:81:8e:90:
        79:b1:e9:50:75:da:a7:c5:bf:1d:b7:1e:5a:70:ce:ba:29:ba:
        60:07:d4:1e:90:af:8a:f1:e6:a5:29:fc:b2:b1:ad:5e:62:a5:
        8a:4f:9c:a0:3c:d2:dd:03:7a:d4:3a:ec:aa:b0:b7:ec:cc:5b:
        d1:88:b9:63
-----BEGIN CERTIFICATE-----
MIIDyTCCArGgAwIBAgIQUw6Ft3g9vc3NSC11tIes6jANBgkqhkiG9w0BAQsFADAs
MSowKAYDVQQDDCFzZW5zaXRpdmUtd2ViLXNlcnZlci5leGFtcGxlLnRlc3QwHhcN
MjMwMzI2MTYxNjA4WhcNMjUwNjI4MTYxNjA4WjAsMSowKAYDVQQDDCFzZW5zaXRp
dmUtd2ViLXNlcnZlci5leGFtcGxlLnRlc3QwggEiMA0GCSqGSIb3DQEBAQUAA4IB
DwAwggEKAoIBAQChcGNHLuVzo6HZu/2Ocw3b+Fp1tZiLApKe4T3ZBUXi20zLsoRs
eWVysgB6FNTxSveU2yRxU6iBySlZ440CLpN+VcYvNaWePt4oBmUalJQh9kA6wI1X
aqb6a869Z3ydYgF1Ep2LMEnCg3IarvkB6Z8HIPcFMODtILImKhoqL6gUbhwIRvI1
J0sUnFldv84p6VX6DG8zOq49xgFehMzy9kXsQ6/dOJkQ5Rs/j1GwywFh/jieMVKX
ulf/+bSh42ZeTn7Xm9gflMxiP3W9EnujSGhYB3AtwrWS4KrWlTPV4SFQR4ZO0e08
6TvcfLSd9NlpEjPzz4Qlnkwh/OhSb0sweIxdAgMBAAGjgeYwgeMwCQYDVR0TBAIw
ADAdBgNVHQ4EFgQUe0CfP5bgl6CaoBDePP+T1QzgPu0wZwYDVR0jBGAwXoAU7u6U
90aBPzfsnzqENYE77k56aJihMKQuMCwxKjAoBgNVBAMMIXNlbnNpdGl2ZS13ZWIt
c2VydmVyLmV4YW1wbGUudGVzdIIUBP7r2dVRW0IDzac6qWsb07QlhzEwEwYDVR0l
BAwwCgYIKwYBBQUHAwEwCwYDVR0PBAQDAgWgMCwGA1UdEQQlMCOCIXNlbnNpdGl2
ZS13ZWItc2VydmVyLmV4YW1wbGUudGVzdDANBgkqhkiG9w0BAQsFAAOCAQEARQL6
hK0hGizq8iATYYQ3QoFptfmcGP+DChg86GWMwT9wvNu6WtL+3ngXAqg5E4eufs4M
2TxLn9CtPSVklAR+k7RKBWD3E/jhyvyRo4KMzr47liaipBPwmJG/oaEwc44OdwVv
JGBDHxm5xxX1/aVaz1CVVfuwhIeRVHvQhVpooQDDYqTKtVgU8JFK8uaZKLoRYJZn
5CqGLAiekTmIri5xKVR8d3UbX/DMmWjqa9iytAhV6zqdvv+GsX5TAIRFH4PsoF1w
gY6QebHpUHXap8W/HbceWnDOuim6YAfUHpCvivHmpSn8srGtXmKlik+coDzS3QN6
1DrsqrC37Mxb0Yi5Yw==
-----END CERTIFICATE-----
