Certificate:
    Data:
        Version: 3 (0x2)
        Serial Number:
            b6:2b:4d:f7:49:94:5a:d0:da:c4:76:8b:e1:02:b5:56
        Signature Algorithm: sha256WithRSAEncryption
        Issuer: CN=sensitive-web-server.example.test
        Validity
            Not Before: Mar 26 16:16:46 2023 GMT
            Not After : Jun 28 16:16:46 2025 GMT
        Subject: CN=sensitive-web-server.example.test
        Subject Public Key Info:
            Public Key Algorithm: rsaEncryption
                Public-Key: (2048 bit)
                Modulus:
                    00:a0:8c:f7:8e:99:c6:95:5e:58:22:aa:52:84:87:
                    aa:6e:f0:6e:fa:81:fe:5c:d0:9b:6f:9b:74:4d:57:
                    9c:36:51:ed:73:76:72:8b:43:c4:2d:09:bf:fe:b2:
                    61:ba:4f:b3:aa:bc:4d:b9:40:9e:5d:cc:62:10:11:
                    01:c0:53:88:fc:0d:0f:77:c1:68:a7:77:78:8e:a4:
                    7a:7a:dd:2f:dc:70:cc:48:0b:76:c5:5e:73:a2:49:
                    3c:fe:c5:8b:dc:7c:74:0c:71:cc:cb:4d:85:eb:a1:
                    9d:e2:7f:cb:35:df:55:a9:36:83:d6:bb:61:16:c2:
                    8a:a2:8d:ec:70:d4:8f:72:0a:b6:d4:22:6c:c2:4c:
                    0d:3e:a8:d0:d5:ed:05:07:48:d9:8c:16:8e:6a:1d:
                    c4:79:1c:43:83:ed:65:b3:2d:af:65:1e:d5:85:61:
                    6f:87:70:a5:63:2e:73:06:46:34:e3:30:34:aa:53:
                    60:e0:ed:e8:cd:51:7e:df:2a:62:77:ce:26:56:6c:
                    78:05:7f:7d:e5:0b:5e:d8:08:6b:2e:25:bb:dd:9d:
                    65:7d:75:ce:42:3c:28:e4:a3:69:09:81:64:f1:3f:
                    ce:dc:b3:c9:e9:c5:f1:ab:d8:56:f4:f2:ac:5b:e6:
                    f1:3f:c2:18:42:41:47:c9:06:df:69:a0:2f:22:61:
                    f0:d1
                Exponent: 65537 (0x10001)
        X509v3 extensions:
            X509v3 Basic Constraints: 
                CA:FALSE
            X509v3 Subject Key Identifier: 
                E7:13:53:FD:36:10:73:F1:E8:68:3F:DD:D1:B2:89:41:14:BE:35:64
            X509v3 Authority Key Identifier: 
                keyid:EE:EE:94:F7:46:81:3F:37:EC:9F:3A:84:35:81:3B:EE:4E:7A:68:98
                DirName:/CN=sensitive-web-server.example.test
                serial:04:FE:EB:D9:D5:51:5B:42:03:CD:A7:3A:A9:6B:1B:D3:B4:25:87:31
            X509v3 Extended Key Usage: 
                TLS Web Client Authentication
            X509v3 Key Usage: 
                Digital Signature
    Signature Algorithm: sha256WithRSAEncryption
    Signature Value:
        0e:c7:27:48:c8:c2:33:e2:33:5e:8a:cd:81:e2:bd:ac:0f:d5:
        e1:b8:c2:5a:0d:27:0d:02:72:fd:81:96:00:3a:8f:e9:d3:59:
        12:87:43:f8:56:82:06:b0:67:29:17:fa:b1:b5:f8:fe:44:17:
        17:fd:ef:22:8d:37:db:07:04:12:5e:62:17:f4:f2:06:bf:ef:
        b6:d5:74:27:99:e2:c6:5f:89:28:36:3a:1c:6d:9a:63:60:43:
        e1:32:9d:34:a5:c8:44:86:22:ee:80:ec:af:25:f2:a5:94:8b:
        9b:df:47:5a:44:39:f4:49:9b:fb:06:65:28:a9:3e:96:78:82:
        3d:e0:9c:fb:ff:09:bf:16:9a:4f:55:04:64:db:c7:f5:01:b1:
        14:98:60:19:3d:e9:71:69:ff:38:7d:66:f2:b0:07:12:9d:d5:
        d7:92:73:16:e1:bc:2f:de:c2:79:00:db:8b:d1:ba:e9:71:c9:
        e0:4a:07:df:0a:d9:e9:e3:52:00:4f:d4:f5:db:66:81:c3:23:
        49:2e:f3:f3:a0:48:88:88:b0:d2:d5:f2:dc:df:ac:a0:c8:c9:
        98:10:f8:1c:2a:a8:9f:1d:4a:86:89:a8:12:88:6b:af:57:48:
        5e:28:ba:ec:6f:20:a3:ea:c1:4c:dd:50:71:c1:d0:08:d6:0b:
        01:6d:5b:c7
-----BEGIN CERTIFICATE-----
MIIDnDCCAoSgAwIBAgIRALYrTfdJlFrQ2sR2i+ECtVYwDQYJKoZIhvcNAQELBQAw
LDEqMCgGA1UEAwwhc2Vuc2l0aXZlLXdlYi1zZXJ2ZXIuZXhhbXBsZS50ZXN0MB4X
DTIzMDMyNjE2MTY0NloXDTI1MDYyODE2MTY0NlowLDEqMCgGA1UEAwwhc2Vuc2l0
aXZlLXdlYi1zZXJ2ZXIuZXhhbXBsZS50ZXN0MIIBIjANBgkqhkiG9w0BAQEFAAOC
AQ8AMIIBCgKCAQEAoIz3jpnGlV5YIqpShIeqbvBu+oH+XNCbb5t0TVecNlHtc3Zy
i0PELQm//rJhuk+zqrxNuUCeXcxiEBEBwFOI/A0Pd8Fop3d4jqR6et0v3HDMSAt2
xV5zokk8/sWL3Hx0DHHMy02F66Gd4n/LNd9VqTaD1rthFsKKoo3scNSPcgq21CJs
wkwNPqjQ1e0FB0jZjBaOah3EeRxDg+1lsy2vZR7VhWFvh3ClYy5zBkY04zA0qlNg
4O3ozVF+3ypid84mVmx4BX995Qte2AhrLiW73Z1lfXXOQjwo5KNpCYFk8T/O3LPJ
6cXxq9hW9PKsW+bxP8IYQkFHyQbfaaAvImHw0QIDAQABo4G4MIG1MAkGA1UdEwQC
MAAwHQYDVR0OBBYEFOcTU/02EHPx6Gg/3dGyiUEUvjVkMGcGA1UdIwRgMF6AFO7u
lPdGgT837J86hDWBO+5OemiYoTCkLjAsMSowKAYDVQQDDCFzZW5zaXRpdmUtd2Vi
LXNlcnZlci5leGFtcGxlLnRlc3SCFAT+69nVUVtCA82nOqlrG9O0JYcxMBMGA1Ud
JQQMMAoGCCsGAQUFBwMCMAsGA1UdDwQEAwIHgDANBgkqhkiG9w0BAQsFAAOCAQEA
DscnSMjCM+IzXorNgeK9rA/V4bjCWg0nDQJy/YGWADqP6dNZEodD+FaCBrBnKRf6
sbX4/kQXF/3vIo032wcEEl5iF/TyBr/vttV0J5nixl+JKDY6HG2aY2BD4TKdNKXI
RIYi7oDsryXypZSLm99HWkQ59Emb+wZlKKk+lniCPeCc+/8JvxaaT1UEZNvH9QGx
FJhgGT3pcWn/OH1m8rAHEp3V15JzFuG8L97CeQDbi9G66XHJ4EoH3wrZ6eNSAE/U
9dtmgcMjSS7z86BIiIiw0tXy3N+soMjJmBD4HCqonx1KhomoEohrr1dIXii67G8g
o+rBTN1QccHQCNYLAW1bxw==
-----END CERTIFICATE-----
