Certificate:
    Data:
        Version: 3 (0x2)
        Serial Number:
            be:55:1a:a8:58:7d:a5:18:2c:5b:02:f6:cb:6c:68:70
        Signature Algorithm: sha256WithRSAEncryption
        Issuer: CN=172.19.0.3
        Validity
            Not Before: Mar 26 05:25:39 2023 GMT
            Not After : Jun 28 05:25:39 2025 GMT
        Subject: CN=client
        Subject Public Key Info:
            Public Key Algorithm: rsaEncryption
                Public-Key: (2048 bit)
                Modulus:
                    00:b0:fe:1a:07:46:3c:3d:7a:55:6b:57:75:af:6b:
                    bd:ec:cc:76:f2:9b:72:97:55:f7:82:41:db:f8:f2:
                    07:5c:55:38:c5:89:8b:ea:81:bb:5f:93:ee:8e:e6:
                    6e:3d:a3:1f:81:d1:96:8e:62:ea:d3:9b:5e:a9:8f:
                    98:dd:f8:ea:b3:f7:6e:03:24:5b:cb:fb:9d:f8:42:
                    9d:d1:5e:d0:ca:2d:b0:19:02:08:c1:2c:18:44:e1:
                    dc:9c:a2:d4:1c:62:e8:93:19:5b:c0:0f:98:bd:de:
                    ff:5d:10:cb:04:2a:a5:6a:4b:cb:9d:53:c6:16:2e:
                    56:a8:5c:eb:79:aa:4c:17:a7:a6:3b:74:64:b4:02:
                    59:24:3a:f8:bb:36:71:da:7a:e0:40:b9:6c:1b:3a:
                    73:09:82:18:b0:74:cf:de:7e:ec:d6:da:04:bf:be:
                    39:c5:ff:a6:5b:72:12:79:52:b6:0f:93:81:a3:4d:
                    2d:d7:55:1c:39:bd:7e:ce:20:63:60:21:a4:9f:65:
                    dd:de:14:ad:a2:1d:fc:28:6c:a5:1e:6f:be:74:5b:
                    29:37:cf:83:2d:d8:49:77:d1:26:e2:dd:1d:ed:48:
                    03:f0:be:61:d1:d4:d4:8e:bf:04:d6:4d:f5:72:bd:
                    d4:8a:7e:ae:91:72:ed:0c:50:27:6a:51:df:71:a8:
                    a0:0f
                Exponent: 65537 (0x10001)
        X509v3 extensions:
            X509v3 Basic Constraints: 
                CA:FALSE
            X509v3 Subject Key Identifier: 
                BF:15:3E:63:2E:BC:8D:70:DD:37:B6:6A:D8:D8:ED:16:E3:1A:23:57
            X509v3 Authority Key Identifier: 
                keyid:6B:B7:77:6C:7D:71:A7:B5:6B:43:D3:45:D5:B3:A1:93:44:77:12:60
                DirName:/CN=172.19.0.3
                serial:5B:E0:21:F4:03:1C:6E:59:95:6D:71:E1:6A:6B:91:2C:C9:38:27:9D
            X509v3 Extended Key Usage: 
                TLS Web Client Authentication
            X509v3 Key Usage: 
                Digital Signature
    Signature Algorithm: sha256WithRSAEncryption
    Signature Value:
        e7:24:33:7b:0e:5a:22:d5:c2:7e:d0:62:c7:39:42:57:3e:ff:
        a7:8e:06:0e:c8:d4:12:cc:36:00:d6:59:e3:c6:0d:a7:41:11:
        57:72:5c:4e:3e:f5:e3:ed:a4:2a:29:e4:ec:da:52:a5:ee:e6:
        5e:55:a5:27:ef:fc:e2:0a:48:3b:6c:06:1b:c9:d9:31:fe:f5:
        29:89:37:6d:ba:74:d7:72:4c:89:ba:fb:cc:17:3c:57:68:20:
        b5:11:05:b6:d4:6a:36:71:81:8f:3f:af:ef:f3:65:7d:a5:c8:
        fa:1e:c9:8e:f7:77:61:64:32:34:7e:5a:6e:7c:e1:cd:0c:9e:
        48:d5:e1:17:c5:47:83:45:3c:55:0c:94:c1:1d:6c:8c:07:6e:
        3c:ab:bc:6e:60:91:9f:e7:de:86:a3:91:01:52:3d:c3:02:14:
        8a:e8:67:84:f6:6b:c0:e9:bf:7c:e5:c4:ce:88:4b:a6:09:f7:
        88:6b:42:6b:1c:3b:96:79:c2:6d:93:9d:77:df:6a:54:4a:9a:
        87:86:02:29:d8:3c:fe:4e:ef:01:a4:95:80:d1:10:dc:66:ac:
        a4:b5:7f:3d:75:1f:86:45:d0:90:29:b9:75:f1:d4:ca:26:c8:
        c3:db:09:a1:b8:83:c4:94:d2:9e:37:32:f9:fd:f8:4b:82:15:
        91:4d:d4:35
-----BEGIN CERTIFICATE-----
MIIDUzCCAjugAwIBAgIRAL5VGqhYfaUYLFsC9stsaHAwDQYJKoZIhvcNAQELBQAw
FTETMBEGA1UEAwwKMTcyLjE5LjAuMzAeFw0yMzAzMjYwNTI1MzlaFw0yNTA2Mjgw
NTI1MzlaMBExDzANBgNVBAMMBmNsaWVudDCCASIwDQYJKoZIhvcNAQEBBQADggEP
ADCCAQoCggEBALD+GgdGPD16VWtXda9rvezMdvKbcpdV94JB2/jyB1xVOMWJi+qB
u1+T7o7mbj2jH4HRlo5i6tObXqmPmN346rP3bgMkW8v7nfhCndFe0MotsBkCCMEs
GETh3Jyi1Bxi6JMZW8APmL3e/10QywQqpWpLy51TxhYuVqhc63mqTBenpjt0ZLQC
WSQ6+Ls2cdp64EC5bBs6cwmCGLB0z95+7NbaBL++OcX/pltyEnlStg+TgaNNLddV
HDm9fs4gY2AhpJ9l3d4UraId/ChspR5vvnRbKTfPgy3YSXfRJuLdHe1IA/C+YdHU
1I6/BNZN9XK91Ip+rpFy7QxQJ2pR33GooA8CAwEAAaOBoTCBnjAJBgNVHRMEAjAA
MB0GA1UdDgQWBBS/FT5jLryNcN03tmrY2O0W4xojVzBQBgNVHSMESTBHgBRrt3ds
fXGntWtD00XVs6GTRHcSYKEZpBcwFTETMBEGA1UEAwwKMTcyLjE5LjAuM4IUW+Ah
9AMcblmVbXHhamuRLMk4J50wEwYDVR0lBAwwCgYIKwYBBQUHAwIwCwYDVR0PBAQD
AgeAMA0GCSqGSIb3DQEBCwUAA4IBAQDnJDN7Dloi1cJ+0GLHOUJXPv+njgYOyNQS
zDYA1lnjxg2nQRFXclxOPvXj7aQqKeTs2lKl7uZeVaUn7/ziCkg7bAYbydkx/vUp
iTdtunTXckyJuvvMFzxXaCC1EQW21Go2cYGPP6/v82V9pcj6HsmO93dhZDI0flpu
fOHNDJ5I1eEXxUeDRTxVDJTBHWyMB248q7xuYJGf596Go5EBUj3DAhSK6GeE9mvA
6b985cTOiEumCfeIa0JrHDuWecJtk51332pUSpqHhgIp2Dz+Tu8BpJWA0RDcZqyk
tX89dR+GRdCQKbl18dTKJsjD2wmhuIPElNKeNzL5/fhLghWRTdQ1
-----END CERTIFICATE-----
