Certificate:
    Data:
        Version: 3 (0x2)
        Serial Number:
            f3:ef:79:4a:95:c2:9e:c7:5b:69:c3:b5:a0:9d:c9:75
        Signature Algorithm: sha256WithRSAEncryption
        Issuer: CN=server
        Validity
            Not Before: Mar 26 15:48:49 2023 GMT
            Not After : Jun 28 15:48:49 2025 GMT
        Subject: CN=client
        Subject Public Key Info:
            Public Key Algorithm: rsaEncryption
                Public-Key: (2048 bit)
                Modulus:
                    00:b0:2b:e4:3a:04:80:45:18:05:3f:91:9f:47:a3:
                    b1:4e:ce:99:ba:03:78:9a:eb:a0:d5:ec:35:68:4c:
                    da:58:f0:6f:f4:0f:fd:17:ec:94:00:1d:fc:53:35:
                    c8:5d:ca:84:d3:54:20:8e:4f:bf:8c:a1:25:e8:ec:
                    c9:21:e3:16:cd:bf:c1:ff:0c:e9:5e:59:5e:27:c5:
                    97:82:48:94:dd:6c:af:dd:b7:79:09:4c:4a:3c:a3:
                    6c:a7:ff:4b:f4:95:7f:25:4e:92:73:02:fd:19:13:
                    8c:79:cb:de:a9:46:33:d0:60:18:1f:41:93:5f:3f:
                    ee:2f:b6:b6:86:43:ef:72:f5:f2:80:4d:21:0a:e2:
                    b1:7f:64:f6:94:3d:f7:54:7a:1b:81:c1:30:a8:81:
                    34:31:b0:68:08:d3:06:e2:6a:1a:43:1f:54:b1:05:
                    8e:29:df:a1:ae:b4:61:4d:b9:a6:3a:14:65:c0:7e:
                    b3:9a:c8:84:3a:f6:2c:0f:d2:b9:3d:1a:ab:e8:a8:
                    db:39:d8:5e:40:80:3b:48:8c:d8:c9:2f:42:5d:46:
                    e8:27:61:d4:17:45:61:13:e4:a4:93:c9:e6:ae:ce:
                    4e:cb:f3:66:3a:8d:21:38:2f:fb:89:dd:3a:d0:04:
                    01:c8:80:f5:90:28:f0:ad:49:3d:ad:45:bf:61:95:
                    ad:37
                Exponent: 65537 (0x10001)
        X509v3 extensions:
            X509v3 Basic Constraints: 
                CA:FALSE
            X509v3 Subject Key Identifier: 
                BE:73:05:61:3B:B6:AC:15:FF:BC:4C:45:5C:EF:61:0D:4A:28:BA:ED
            X509v3 Authority Key Identifier: 
                keyid:27:23:78:B1:0B:BD:0C:F3:66:48:1E:53:B3:76:E3:57:82:06:9F:E6
                DirName:/CN=server
                serial:5C:E6:E1:11:67:AA:5E:89:AB:45:E7:84:EB:90:E5:6C:A3:D7:50:7C
            X509v3 Extended Key Usage: 
                TLS Web Client Authentication
            X509v3 Key Usage: 
                Digital Signature
    Signature Algorithm: sha256WithRSAEncryption
    Signature Value:
        bf:85:08:13:fa:73:14:53:72:f6:f3:12:49:00:de:6a:3e:21:
        16:d9:18:ed:ee:7d:8d:40:7d:02:4d:ec:08:12:03:61:e7:ca:
        00:bd:d9:c6:0d:e3:e0:a3:4c:f8:c1:da:19:93:85:cc:14:81:
        1b:5c:e7:d3:f3:de:97:a2:2e:58:ec:0b:b4:69:fb:18:bd:19:
        37:69:b4:9d:88:dc:7a:74:04:32:76:1a:18:f3:43:2a:e4:b4:
        5b:4b:c7:b7:55:82:a4:1e:97:2e:6c:19:de:40:17:6e:d9:c2:
        39:c9:fc:f9:b1:36:2d:0b:d6:87:15:b7:f0:0b:22:6c:ee:e2:
        ee:d5:69:e3:d7:6f:1c:83:c9:fc:4f:d2:85:63:68:e1:c9:38:
        bb:79:6a:28:e1:9a:02:4f:59:a9:f1:bc:99:3e:5e:f4:53:4c:
        3b:bb:a7:1a:d4:ac:b7:6c:95:02:49:13:98:04:21:2c:d5:53:
        42:83:d8:b2:02:c6:b7:11:90:83:30:33:82:1b:e3:c9:a4:8c:
        a0:f7:a7:d4:f9:8b:83:1d:81:82:ec:a3:54:cb:a4:44:be:17:
        fc:93:6e:6d:cb:43:79:a1:52:c2:6d:cf:8c:f7:f4:08:b5:22:
        ee:78:6a:00:ea:32:7f:85:9a:f8:70:41:bb:ad:30:7e:95:9e:
        f5:73:41:66
-----BEGIN CERTIFICATE-----
MIIDSzCCAjOgAwIBAgIRAPPveUqVwp7HW2nDtaCdyXUwDQYJKoZIhvcNAQELBQAw
ETEPMA0GA1UEAwwGc2VydmVyMB4XDTIzMDMyNjE1NDg0OVoXDTI1MDYyODE1NDg0
OVowETEPMA0GA1UEAwwGY2xpZW50MIIBIjANBgkqhkiG9w0BAQEFAAOCAQ8AMIIB
CgKCAQEAsCvkOgSARRgFP5GfR6OxTs6ZugN4muug1ew1aEzaWPBv9A/9F+yUAB38
UzXIXcqE01Qgjk+/jKEl6OzJIeMWzb/B/wzpXlleJ8WXgkiU3Wyv3bd5CUxKPKNs
p/9L9JV/JU6ScwL9GROMecveqUYz0GAYH0GTXz/uL7a2hkPvcvXygE0hCuKxf2T2
lD33VHobgcEwqIE0MbBoCNMG4moaQx9UsQWOKd+hrrRhTbmmOhRlwH6zmsiEOvYs
D9K5PRqr6KjbOdheQIA7SIzYyS9CXUboJ2HUF0VhE+Skk8nmrs5Oy/NmOo0hOC/7
id060AQByID1kCjwrUk9rUW/YZWtNwIDAQABo4GdMIGaMAkGA1UdEwQCMAAwHQYD
VR0OBBYEFL5zBWE7tqwV/7xMRVzvYQ1KKLrtMEwGA1UdIwRFMEOAFCcjeLELvQzz
ZkgeU7N241eCBp/moRWkEzARMQ8wDQYDVQQDDAZzZXJ2ZXKCFFzm4RFnql6Jq0Xn
hOuQ5Wyj11B8MBMGA1UdJQQMMAoGCCsGAQUFBwMCMAsGA1UdDwQEAwIHgDANBgkq
hkiG9w0BAQsFAAOCAQEAv4UIE/pzFFNy9vMSSQDeaj4hFtkY7e59jUB9Ak3sCBID
YefKAL3Zxg3j4KNM+MHaGZOFzBSBG1zn0/Pel6IuWOwLtGn7GL0ZN2m0nYjcenQE
MnYaGPNDKuS0W0vHt1WCpB6XLmwZ3kAXbtnCOcn8+bE2LQvWhxW38AsibO7i7tVp
49dvHIPJ/E/ShWNo4ck4u3lqKOGaAk9ZqfG8mT5e9FNMO7unGtSst2yVAkkTmAQh
LNVTQoPYsgLGtxGQgzAzghvjyaSMoPen1PmLgx2BguyjVMukRL4X/JNubctDeaFS
wm3PjPf0CLUi7nhqAOoyf4Wa+HBBu60wfpWe9XNBZg==
-----END CERTIFICATE-----
